; Function Attrs: mustprogress nofree norecurse nosync nounwind willreturn memory(argmem: read) uwtable
define dso_local noundef range(i32 0, 6) i32 @_ZNK9cmProcess16GetExitExceptionEv(ptr noundef nonnull readonly align 8 captures(none) dereferenceable(316) %0) local_unnamed_addr #7 align 2 {
  %2 = getelementptr inbounds nuw i8, ptr %0, i64 132
  %3 = load i32, ptr %2, align 4
  %4 = icmp ult i32 %3, 12
  br i1 %4, label %switch.lookup, label %6

switch.lookup:                                    ; preds = %1
  %5 = zext nneg i32 %3 to i64
  %switch.gep = getelementptr inbounds nuw [12 x i32], ptr @switch.table._ZNK9cmProcess16GetExitExceptionEv, i64 0, i64 %5
  %switch.load = load i32, ptr %switch.gep, align 4
  br label %6

6:                                                ; preds = %1, %switch.lookup
  %.0 = phi i32 [ %switch.load, %switch.lookup ], [ 5, %1 ]
  ret i32 %.0
}